target datalayout = "e-m:e-p270:32:32-p271:32:32-p272:64:64-i64:64-i128:128-f80:128-n8:16:32:64-S128"
target triple = "x86_64-pc-linux-gnu"

%struct.cli_clamav_intel = type { ptr, ptr, ptr, i32, i32, i32, i32, i64, ptr, %union.pthread_mutex_t }
%union.pthread_mutex_t = type { %struct.__pthread_mutex_s }
%struct.__pthread_mutex_s = type { i32, i32, i32, i32, i32, i16, i16, %struct.__pthread_internal_list }
%struct.__pthread_internal_list = type { ptr, ptr }
%struct.cli_flagged_sample = type { ptr, [16 x i8], i32, i32, ptr, ptr, ptr }
%struct.cli_stats_sections = type { i64, ptr }

@.str.3 = private unnamed_addr constant [56 x i8] c"clamav_stats_flush: locking mutex failed (err: %d): %s\0A\00", align 1
@.str.4 = private unnamed_addr constant [58 x i8] c"clamav_stats_flush: unlocking mutex failed (err: %d): %s\0A\00", align 1

; Function Attrs: nounwind uwtable
define void @free_sample(ptr noundef %0) #0 {
  %2 = alloca ptr, align 8
  %3 = alloca i64, align 8
  store ptr %0, ptr %2, align 8
  %4 = load ptr, ptr %2, align 8
  %5 = getelementptr inbounds %struct.cli_flagged_sample, ptr %4, i32 0, i32 0
  %6 = load ptr, ptr %5, align 8
  %7 = icmp ne ptr %6, null
  br i1 %7, label %8, label %31

8:                                                ; preds = %1
  store i64 0, ptr %3, align 8
  br label %9

9:                                                ; preds = %24, %8
  %10 = load ptr, ptr %2, align 8
  %11 = getelementptr inbounds %struct.cli_flagged_sample, ptr %10, i32 0, i32 0
  %12 = load ptr, ptr %11, align 8
  %13 = load i64, ptr %3, align 8
  %14 = getelementptr inbounds ptr, ptr %12, i64 %13
  %15 = load ptr, ptr %14, align 8
  %16 = icmp ne ptr %15, null
  br i1 %16, label %17, label %27

17:                                               ; preds = %9
  %18 = load ptr, ptr %2, align 8
  %19 = getelementptr inbounds %struct.cli_flagged_sample, ptr %18, i32 0, i32 0
  %20 = load ptr, ptr %19, align 8
  %21 = load i64, ptr %3, align 8
  %22 = getelementptr inbounds ptr, ptr %20, i64 %21
  %23 = load ptr, ptr %22, align 8
  call void @free(ptr noundef %23) #7
  br label %24

24:                                               ; preds = %17
  %25 = load i64, ptr %3, align 8
  %26 = add i64 %25, 1
  store i64 %26, ptr %3, align 8
  br label %9

27:                                               ; preds = %9
  %28 = load ptr, ptr %2, align 8
  %29 = getelementptr inbounds %struct.cli_flagged_sample, ptr %28, i32 0, i32 0
  %30 = load ptr, ptr %29, align 8
  call void @free(ptr noundef %30) #7
  br label %31

31:                                               ; preds = %27, %1
  %32 = load ptr, ptr %2, align 8
  %33 = getelementptr inbounds %struct.cli_flagged_sample, ptr %32, i32 0, i32 4
  %34 = load ptr, ptr %33, align 8
  %35 = icmp ne ptr %34, null
  br i1 %35, label %36, label %52

36:                                               ; preds = %31
  %37 = load ptr, ptr %2, align 8
  %38 = getelementptr inbounds %struct.cli_flagged_sample, ptr %37, i32 0, i32 4
  %39 = load ptr, ptr %38, align 8
  %40 = getelementptr inbounds %struct.cli_stats_sections, ptr %39, i32 0, i32 0
  %41 = load i64, ptr %40, align 8
  %42 = icmp ne i64 %41, 0
  br i1 %42, label %43, label %52

43:                                               ; preds = %36
  %44 = load ptr, ptr %2, align 8
  %45 = getelementptr inbounds %struct.cli_flagged_sample, ptr %44, i32 0, i32 4
  %46 = load ptr, ptr %45, align 8
  %47 = getelementptr inbounds %struct.cli_stats_sections, ptr %46, i32 0, i32 1
  %48 = load ptr, ptr %47, align 8
  call void @free(ptr noundef %48) #7
  %49 = load ptr, ptr %2, align 8
  %50 = getelementptr inbounds %struct.cli_flagged_sample, ptr %49, i32 0, i32 4
  %51 = load ptr, ptr %50, align 8
  call void @free(ptr noundef %51) #7
  br label %52

52:                                               ; preds = %43, %36, %31
  %53 = load ptr, ptr %2, align 8
  call void @free(ptr noundef %53) #7
  ret void
}

; Function Attrs: nounwind uwtable
define void @clamav_stats_flush(ptr noundef %0, ptr noundef %1) #0 {
  %3 = alloca ptr, align 8
  %4 = alloca ptr, align 8
  %5 = alloca ptr, align 8
  %6 = alloca ptr, align 8
  %7 = alloca ptr, align 8
  %8 = alloca i32, align 4
  store ptr %0, ptr %3, align 8
  store ptr %1, ptr %4, align 8
  %9 = load ptr, ptr %4, align 8
  %10 = icmp ne ptr %9, null
  br i1 %10, label %11, label %14

11:                                               ; preds = %2
  %12 = load ptr, ptr %3, align 8
  %13 = icmp ne ptr %12, null
  br i1 %13, label %15, label %14

14:                                               ; preds = %11, %2
  br label %65

15:                                               ; preds = %11
  %16 = load ptr, ptr %4, align 8
  store ptr %16, ptr %5, align 8
  %17 = load ptr, ptr %5, align 8
  %18 = getelementptr inbounds %struct.cli_clamav_intel, ptr %17, i32 0, i32 9
  %19 = call i32 @pthread_mutex_lock(ptr noundef %18) #7
  store i32 %19, ptr %8, align 4
  %20 = load i32, ptr %8, align 4
  %21 = icmp ne i32 %20, 0
  br i1 %21, label %22, label %26

22:                                               ; preds = %15
  %23 = load i32, ptr %8, align 4
  %24 = load i32, ptr %8, align 4
  %25 = call ptr @strerror(i32 noundef %24) #7
  call void (ptr, ...) @cli_warnmsg(ptr noundef @.str.3, i32 noundef %23, ptr noundef %25)
  br label %65

26:                                               ; preds = %15
  %27 = load ptr, ptr %5, align 8
  %28 = getelementptr inbounds %struct.cli_clamav_intel, ptr %27, i32 0, i32 2
  %29 = load ptr, ptr %28, align 8
  store ptr %29, ptr %6, align 8
  br label %30

30:                                               ; preds = %38, %26
  %31 = load ptr, ptr %6, align 8
  %32 = icmp ne ptr %31, null
  br i1 %32, label %33, label %40

33:                                               ; preds = %30
  %34 = load ptr, ptr %6, align 8
  %35 = getelementptr inbounds %struct.cli_flagged_sample, ptr %34, i32 0, i32 6
  %36 = load ptr, ptr %35, align 8
  store ptr %36, ptr %7, align 8
  %37 = load ptr, ptr %6, align 8
  call void @free_sample(ptr noundef %37)
  br label %38

38:                                               ; preds = %33
  %39 = load ptr, ptr %7, align 8
  store ptr %39, ptr %6, align 8
  br label %30

40:                                               ; preds = %30
  %41 = load ptr, ptr %5, align 8
  %42 = getelementptr inbounds %struct.cli_clamav_intel, ptr %41, i32 0, i32 2
  store ptr null, ptr %42, align 8
  %43 = load ptr, ptr %5, align 8
  %44 = getelementptr inbounds %struct.cli_clamav_intel, ptr %43, i32 0, i32 3
  store i32 0, ptr %44, align 8
  %45 = load ptr, ptr %5, align 8
  %46 = getelementptr inbounds %struct.cli_clamav_intel, ptr %45, i32 0, i32 0
  %47 = load ptr, ptr %46, align 8
  %48 = icmp ne ptr %47, null
  br i1 %48, label %49, label %55

49:                                               ; preds = %40
  %50 = load ptr, ptr %5, align 8
  %51 = getelementptr inbounds %struct.cli_clamav_intel, ptr %50, i32 0, i32 0
  %52 = load ptr, ptr %51, align 8
  call void @free(ptr noundef %52) #7
  %53 = load ptr, ptr %5, align 8
  %54 = getelementptr inbounds %struct.cli_clamav_intel, ptr %53, i32 0, i32 0
  store ptr null, ptr %54, align 8
  br label %55

55:                                               ; preds = %49, %40
  %56 = load ptr, ptr %5, align 8
  %57 = getelementptr inbounds %struct.cli_clamav_intel, ptr %56, i32 0, i32 9
  %58 = call i32 @pthread_mutex_unlock(ptr noundef %57) #7
  store i32 %58, ptr %8, align 4
  %59 = load i32, ptr %8, align 4
  %60 = icmp ne i32 %59, 0
  br i1 %60, label %61, label %65

61:                                               ; preds = %55
  %62 = load i32, ptr %8, align 4
  %63 = load i32, ptr %8, align 4
  %64 = call ptr @strerror(i32 noundef %63) #7
  call void (ptr, ...) @cli_warnmsg(ptr noundef @.str.4, i32 noundef %62, ptr noundef %64)
  br label %65

65:                                               ; preds = %61, %55, %22, %14
  ret void
}