; Function Attrs: nounwind uwtable
define void @clamav_stats_flush(ptr noundef readnone %0, ptr noundef %1) local_unnamed_addr #0 {
  %3 = icmp ne ptr %1, null
  %4 = icmp ne ptr %0, null
  %or.cond = and i1 %4, %3
  br i1 %or.cond, label %5, label %38

5:                                                ; preds = %2
  %6 = getelementptr inbounds nuw i8, ptr %1, i64 56
  %7 = tail call i32 @pthread_mutex_lock(ptr noundef nonnull %6) #13
  %.not = icmp eq i32 %7, 0
  br i1 %.not, label %10, label %8

8:                                                ; preds = %5
  %9 = tail call ptr @strerror(i32 noundef %7) #13
  tail call void (ptr, ...) @cli_warnmsg(ptr noundef nonnull @.str.3, i32 noundef %7, ptr noundef %9) #13
  br label %38

10:                                               ; preds = %5
  %11 = getelementptr inbounds nuw i8, ptr %1, i64 16
  %12 = load ptr, ptr %11, align 8
  %.not2528 = icmp eq ptr %12, null
  br i1 %.not2528, label %._crit_edge, label %.lr.ph

.lr.ph:                                           ; preds = %10, %free_sample.exit
  %.029 = phi ptr [ %14, %free_sample.exit ], [ %12, %10 ]
  %13 = getelementptr inbounds nuw i8, ptr %.029, i64 48
  %14 = load ptr, ptr %13, align 8
  %15 = load ptr, ptr %.029, align 8
  %.not.i = icmp eq ptr %15, null
  br i1 %.not.i, label %22, label %.preheader.i

.preheader.i:                                     ; preds = %.lr.ph
  %16 = load ptr, ptr %15, align 8
  %.not1316.i = icmp eq ptr %16, null
  br i1 %.not1316.i, label %._crit_edge.i, label %.lr.ph.i

.lr.ph.i:                                         ; preds = %.preheader.i, %.lr.ph.i
  %17 = phi ptr [ %21, %.lr.ph.i ], [ %16, %.preheader.i ]
  %.017.i = phi i64 [ %18, %.lr.ph.i ], [ 0, %.preheader.i ]
  tail call void @free(ptr noundef nonnull %17) #13
  %18 = add i64 %.017.i, 1
  %19 = load ptr, ptr %.029, align 8
  %20 = getelementptr inbounds ptr, ptr %19, i64 %18
  %21 = load ptr, ptr %20, align 8
  %.not13.i = icmp eq ptr %21, null
  br i1 %.not13.i, label %._crit_edge.i, label %.lr.ph.i

._crit_edge.i:                                    ; preds = %.lr.ph.i, %.preheader.i
  %.lcssa.i = phi ptr [ %15, %.preheader.i ], [ %19, %.lr.ph.i ]
  tail call void @free(ptr noundef nonnull %.lcssa.i) #13
  br label %22

22:                                               ; preds = %._crit_edge.i, %.lr.ph
  %23 = getelementptr inbounds nuw i8, ptr %.029, i64 32
  %24 = load ptr, ptr %23, align 8
  %.not14.i = icmp eq ptr %24, null
  br i1 %.not14.i, label %free_sample.exit, label %25

25:                                               ; preds = %22
  %26 = load i64, ptr %24, align 8
  %.not15.i = icmp eq i64 %26, 0
  br i1 %.not15.i, label %free_sample.exit, label %27

27:                                               ; preds = %25
  %28 = getelementptr inbounds nuw i8, ptr %24, i64 8
  %29 = load ptr, ptr %28, align 8
  tail call void @free(ptr noundef %29) #13
  %30 = load ptr, ptr %23, align 8
  tail call void @free(ptr noundef %30) #13
  br label %free_sample.exit

free_sample.exit:                                 ; preds = %22, %25, %27
  tail call void @free(ptr noundef nonnull %.029) #13
  %.not25 = icmp eq ptr %14, null
  br i1 %.not25, label %._crit_edge, label %.lr.ph

._crit_edge:                                      ; preds = %free_sample.exit, %10
  store ptr null, ptr %11, align 8
  %31 = getelementptr inbounds nuw i8, ptr %1, i64 24
  store i32 0, ptr %31, align 8
  %32 = load ptr, ptr %1, align 8
  %.not26 = icmp eq ptr %32, null
  br i1 %.not26, label %34, label %33

33:                                               ; preds = %._crit_edge
  tail call void @free(ptr noundef nonnull %32) #13
  store ptr null, ptr %1, align 8
  br label %34

34:                                               ; preds = %33, %._crit_edge
  %35 = tail call i32 @pthread_mutex_unlock(ptr noundef nonnull %6) #13
  %.not27 = icmp eq i32 %35, 0
  br i1 %.not27, label %38, label %36

36:                                               ; preds = %34
  %37 = tail call ptr @strerror(i32 noundef %35) #13
  tail call void (ptr, ...) @cli_warnmsg(ptr noundef nonnull @.str.4, i32 noundef %35, ptr noundef %37) #13
  br label %38

38:                                               ; preds = %2, %36, %34, %8
  ret void
}